; Function Attrs: mustprogress uwtable
define internal noundef i32 @"_ZZZL21DOCTEST_ANON_FUNC_128vENK3$_0clEP9lua_StateENUlS1_E10_8__invokeES1_"(ptr noundef %0) #4 align 2 {
  %2 = tail call noundef ptr @_Z20lua_touserdatataggedP9lua_Stateii(ptr noundef %0, i32 noundef 1, i32 noundef 1)
  %.not.i.i = icmp eq ptr %2, null
  br i1 %.not.i.i, label %5, label %3

3:                                                ; preds = %1
  %4 = load i64, ptr %2, align 8
  br label %_ZL8getInt64P9lua_Statei.exit.i

5:                                                ; preds = %1
  %6 = tail call noundef i32 @_Z12lua_isnumberP9lua_Statei(ptr noundef %0, i32 noundef 1)
  %.not10.i.i = icmp eq i32 %6, 0
  br i1 %.not10.i.i, label %10, label %7

7:                                                ; preds = %5
  %8 = tail call noundef i32 @_Z14lua_tointegerxP9lua_StateiPi(ptr noundef %0, i32 noundef 1, ptr noundef null)
  %9 = sext i32 %8 to i64
  br label %_ZL8getInt64P9lua_Statei.exit.i

10:                                               ; preds = %5
  tail call void @_Z15luaL_typeerrorLP9lua_StateiPKc(ptr noundef %0, i32 noundef 1, ptr noundef nonnull @.str.493) #34
  unreachable

_ZL8getInt64P9lua_Statei.exit.i:                  ; preds = %7, %3
  %.0.i.i = phi i64 [ %4, %3 ], [ %9, %7 ]
  %11 = tail call noundef ptr @_Z20lua_touserdatataggedP9lua_Stateii(ptr noundef %0, i32 noundef 2, i32 noundef 1)
  %.not.i3.i = icmp eq ptr %11, null
  br i1 %.not.i3.i, label %14, label %12

12:                                               ; preds = %_ZL8getInt64P9lua_Statei.exit.i
  %13 = load i64, ptr %11, align 8
  br label %"_ZZZL21DOCTEST_ANON_FUNC_128vENK3$_0clEP9lua_StateENKUlS1_E10_clES1_.exit"

14:                                               ; preds = %_ZL8getInt64P9lua_Statei.exit.i
  %15 = tail call noundef i32 @_Z12lua_isnumberP9lua_Statei(ptr noundef %0, i32 noundef 2)
  %.not10.i5.i = icmp eq i32 %15, 0
  br i1 %.not10.i5.i, label %19, label %16

16:                                               ; preds = %14
  %17 = tail call noundef i32 @_Z14lua_tointegerxP9lua_StateiPi(ptr noundef %0, i32 noundef 2, ptr noundef null)
  %18 = sext i32 %17 to i64
  br label %"_ZZZL21DOCTEST_ANON_FUNC_128vENK3$_0clEP9lua_StateENKUlS1_E10_clES1_.exit"

19:                                               ; preds = %14
  tail call void @_Z15luaL_typeerrorLP9lua_StateiPKc(ptr noundef %0, i32 noundef 1, ptr noundef nonnull @.str.493) #34
  unreachable

"_ZZZL21DOCTEST_ANON_FUNC_128vENK3$_0clEP9lua_StateENKUlS1_E10_clES1_.exit": ; preds = %12, %16
  %.0.i4.i = phi i64 [ %13, %12 ], [ %18, %16 ]
  %20 = sitofp i64 %.0.i.i to double
  %21 = sitofp i64 %.0.i4.i to double
  %22 = tail call double @pow(double noundef %20, double noundef %21) #35
  %23 = fptosi double %22 to i64
  %24 = tail call noundef ptr @_Z21lua_newuserdatataggedP9lua_Statemi(ptr noundef %0, i64 noundef 8, i32 noundef 1)
  %25 = tail call noundef i32 @_Z12lua_getfieldP9lua_StateiPKc(ptr noundef %0, i32 noundef -10000, ptr noundef nonnull @.str.493)
  %26 = tail call noundef i32 @_Z16lua_setmetatableP9lua_Statei(ptr noundef %0, i32 noundef -2)
  store i64 %23, ptr %24, align 8
  ret i32 1
}